target datalayout = "e-m:e-p270:32:32-p271:32:32-p272:64:64-i64:64-i128:128-f80:128-n8:16:32:64-S128"
target triple = "x86_64-unknown-linux-gnu"

%"class.net::TcpCubicSenderPackets" = type { %"class.net::TcpCubicSenderBase.base", %"class.net::Cubic", i64, i64, i64, i64, i64, i64, i64, i64 }
%"class.net::TcpCubicSenderBase.base" = type <{ %"class.net::SendAlgorithmInterface", %"class.net::HybridSlowStart", %"class.net::PrrSender", ptr, ptr, i8, [3 x i8], i32, i64, i64, i64, i8, i8, i8, i8, i8 }>
%"class.net::SendAlgorithmInterface" = type { ptr }
%"class.net::HybridSlowStart" = type { i8, i32, i64, i64, i32, %"class.net::QuicTime::Delta" }
%"class.net::QuicTime::Delta" = type { %"class.base::TimeDelta", i64 }
%"class.base::TimeDelta" = type { i64 }
%"class.net::PrrSender" = type { i64, i64, i64, i64 }
%"class.net::Cubic" = type { ptr, i32, %"class.net::QuicTime", %"class.net::QuicTime", %"class.net::QuicTime", i64, i64, i64, i64, i64, i32, i64 }
%"class.net::QuicTime" = type { i64 }

; Function Attrs: mustprogress uwtable
define dso_local void @_ZN3net21TcpCubicSenderPackets27HandleRetransmissionTimeoutEv(ptr noundef nonnull align 8 dereferenceable(304) %this) unnamed_addr #0 align 2 {
entry:
  %this.addr = alloca ptr, align 8
  store ptr %this, ptr %this.addr, align 8
  %this1 = load ptr, ptr %this.addr, align 8
  %cubic_ = getelementptr inbounds %"class.net::TcpCubicSenderPackets", ptr %this1, i32 0, i32 1
  call void @_ZN3net5Cubic5ResetEv(ptr noundef nonnull align 8 dereferenceable(96) %cubic_)
  %congestion_window_ = getelementptr inbounds %"class.net::TcpCubicSenderPackets", ptr %this1, i32 0, i32 3
  %0 = load i64, ptr %congestion_window_, align 8
  %div = udiv i64 %0, 2
  %slowstart_threshold_ = getelementptr inbounds %"class.net::TcpCubicSenderPackets", ptr %this1, i32 0, i32 5
  store i64 %div, ptr %slowstart_threshold_, align 8
  %min_congestion_window_ = getelementptr inbounds %"class.net::TcpCubicSenderPackets", ptr %this1, i32 0, i32 4
  %1 = load i64, ptr %min_congestion_window_, align 8
  %congestion_window_2 = getelementptr inbounds %"class.net::TcpCubicSenderPackets", ptr %this1, i32 0, i32 3
  store i64 %1, ptr %congestion_window_2, align 8
  ret void
}