; Function Attrs: mustprogress uwtable
define dso_local void @_ZN3net21TcpCubicSenderPackets27HandleRetransmissionTimeoutEv(ptr noundef nonnull align 8 dereferenceable(304) %this) unnamed_addr #0 align 2 {
entry:
  %cubic_ = getelementptr inbounds i8, ptr %this, i64 144
  tail call void @_ZN3net5Cubic5ResetEv(ptr noundef nonnull align 8 dereferenceable(96) %cubic_)
  %congestion_window_ = getelementptr inbounds i8, ptr %this, i64 248
  %0 = load i64, ptr %congestion_window_, align 8
  %div1 = lshr i64 %0, 1
  %slowstart_threshold_ = getelementptr inbounds i8, ptr %this, i64 264
  store i64 %div1, ptr %slowstart_threshold_, align 8
  %min_congestion_window_ = getelementptr inbounds i8, ptr %this, i64 256
  %1 = load i64, ptr %min_congestion_window_, align 8
  store i64 %1, ptr %congestion_window_, align 8
  ret void
}